; Function Attrs: nounwind uwtable
define void @duckdb_je_tsd_global_slow_dec(ptr noundef %0) local_unnamed_addr #0 {
atomic_fetch_sub_u32.exit:
  %1 = atomicrmw sub ptr @tsd_global_slow_count, i32 1 monotonic, align 4
  fence release
  %2 = tail call i32 @pthread_mutex_trylock(ptr noundef nonnull getelementptr inbounds nuw (i8, ptr @tsd_nominal_tsds_lock, i64 72)) #7
  %.not.i.i = icmp eq i32 %2, 0
  br i1 %.not.i.i, label %4, label %3

3:                                                ; preds = %atomic_fetch_sub_u32.exit
  tail call void @duckdb_je_malloc_mutex_lock_slow(ptr noundef nonnull @tsd_nominal_tsds_lock) #7
  store atomic i8 1, ptr getelementptr inbounds nuw (i8, ptr @tsd_nominal_tsds_lock, i64 64) monotonic, align 8
  br label %4

4:                                                ; preds = %3, %atomic_fetch_sub_u32.exit
  %5 = load i64, ptr getelementptr inbounds nuw (i8, ptr @tsd_nominal_tsds_lock, i64 56), align 8, !tbaa !3
  %6 = add i64 %5, 1
  store i64 %6, ptr getelementptr inbounds nuw (i8, ptr @tsd_nominal_tsds_lock, i64 56), align 8, !tbaa !3
  %7 = load ptr, ptr getelementptr inbounds nuw (i8, ptr @tsd_nominal_tsds_lock, i64 48), align 8, !tbaa !13
  %.not.i.i.i = icmp eq ptr %7, %0
  br i1 %.not.i.i.i, label %malloc_mutex_lock.exit.i, label %8

8:                                                ; preds = %4
  store ptr %0, ptr getelementptr inbounds nuw (i8, ptr @tsd_nominal_tsds_lock, i64 48), align 8, !tbaa !13
  %9 = load i64, ptr getelementptr inbounds nuw (i8, ptr @tsd_nominal_tsds_lock, i64 40), align 8, !tbaa !14
  %10 = add i64 %9, 1
  store i64 %10, ptr getelementptr inbounds nuw (i8, ptr @tsd_nominal_tsds_lock, i64 40), align 8, !tbaa !14
  br label %malloc_mutex_lock.exit.i

malloc_mutex_lock.exit.i:                         ; preds = %8, %4
  %11 = load ptr, ptr @tsd_nominal_tsds.0, align 8, !tbaa !15
  %.not9.i = icmp eq ptr %11, null
  br i1 %.not9.i, label %tsd_force_recompute.exit, label %atomic_store_u8.exit.i

atomic_store_u8.exit.i:                           ; preds = %malloc_mutex_lock.exit.i, %atomic_store_u8.exit.i
  %.010.i = phi ptr [ %16, %atomic_store_u8.exit.i ], [ %11, %malloc_mutex_lock.exit.i ]
  %12 = getelementptr inbounds nuw i8, ptr %.010.i, i64 824
  store atomic i8 2, ptr %12 monotonic, align 1
  fence seq_cst
  %13 = getelementptr inbounds nuw i8, ptr %.010.i, i64 840
  store i64 0, ptr %13, align 8, !tbaa !18
  %14 = getelementptr inbounds nuw i8, ptr %.010.i, i64 856
  store i64 0, ptr %14, align 8, !tbaa !18
  %15 = getelementptr inbounds nuw i8, ptr %.010.i, i64 200
  %16 = load ptr, ptr %15, align 8, !tbaa !19
  %17 = load ptr, ptr @tsd_nominal_tsds.0, align 8, !tbaa !15
  %.not8.i = icmp eq ptr %16, %17
  %.not11.i = icmp eq ptr %16, null
  %.not.i = or i1 %.not11.i, %.not8.i
  br i1 %.not.i, label %tsd_force_recompute.exit, label %atomic_store_u8.exit.i

tsd_force_recompute.exit:                         ; preds = %atomic_store_u8.exit.i, %malloc_mutex_lock.exit.i
  store atomic i8 0, ptr getelementptr inbounds nuw (i8, ptr @tsd_nominal_tsds_lock, i64 64) monotonic, align 8
  %18 = tail call i32 @pthread_mutex_unlock(ptr noundef nonnull getelementptr inbounds nuw (i8, ptr @tsd_nominal_tsds_lock, i64 72)) #7
  ret void
}